target datalayout = "e-m:e-p270:32:32-p271:32:32-p272:64:64-i64:64-i128:128-f80:128-n8:16:32:64-S128"
target triple = "x86_64-pc-linux-gnu"

%struct.conversation = type { ptr, ptr, ptr, i32, i32, i32, ptr, ptr, i32, ptr }

@.str.10 = private unnamed_addr constant [49 x i8] c"%s: Can't add proto data to a NULL conversation.\00", align 1

; Function Attrs: null_pointer_is_valid sspstrong uwtable
define void @conversation_add_proto_data(ptr noundef %0, i32 noundef %1, ptr noundef %2) #0 {
  %4 = alloca ptr, align 8
  %5 = alloca i32, align 4
  %6 = alloca ptr, align 8
  store ptr %0, ptr %4, align 8
  store i32 %1, ptr %5, align 4
  store ptr %2, ptr %6, align 8
  %7 = load ptr, ptr %4, align 8
  %8 = icmp eq ptr %7, null
  br i1 %8, label %9, label %12

9:                                                ; preds = %3
  %10 = load i32, ptr %5, align 4
  %11 = call ptr @proto_get_protocol_name(i32 noundef %10)
  call void (ptr, ...) @proto_report_dissector_bug(ptr noundef @.str.10, ptr noundef %11) #13
  unreachable

12:                                               ; preds = %3
  %13 = load ptr, ptr %4, align 8
  %14 = getelementptr inbounds nuw %struct.conversation, ptr %13, i32 0, i32 6
  %15 = load ptr, ptr %14, align 8
  %16 = icmp eq ptr %15, null
  br i1 %16, label %17, label %22

17:                                               ; preds = %12
  %18 = call ptr @wmem_file_scope()
  %19 = call noalias ptr @wmem_tree_new(ptr noundef %18)
  %20 = load ptr, ptr %4, align 8
  %21 = getelementptr inbounds nuw %struct.conversation, ptr %20, i32 0, i32 6
  store ptr %19, ptr %21, align 8
  br label %22

22:                                               ; preds = %17, %12
  %23 = load ptr, ptr %4, align 8
  %24 = getelementptr inbounds nuw %struct.conversation, ptr %23, i32 0, i32 6
  %25 = load ptr, ptr %24, align 8
  %26 = load i32, ptr %5, align 4
  %27 = load ptr, ptr %6, align 8
  call void @wmem_tree_insert32(ptr noundef %25, i32 noundef %26, ptr noundef %27)
  ret void
}