; Function Attrs: null_pointer_is_valid sspstrong uwtable
define void @conversation_add_proto_data(ptr noundef captures(address_is_null) %0, i32 noundef %1, ptr noundef %2) local_unnamed_addr #0 {
  %4 = icmp eq ptr %0, null
  br i1 %4, label %5, label %7

5:                                                ; preds = %3
  %6 = tail call ptr @proto_get_protocol_name(i32 noundef %1)
  tail call void (ptr, ...) @proto_report_dissector_bug(ptr noundef nonnull @.str.10, ptr noundef %6) #16
  unreachable

7:                                                ; preds = %3
  %8 = getelementptr inbounds nuw i8, ptr %0, i64 40
  %9 = load ptr, ptr %8, align 8
  %10 = icmp eq ptr %9, null
  br i1 %10, label %11, label %14

11:                                               ; preds = %7
  %12 = tail call ptr @wmem_file_scope()
  %13 = tail call noalias ptr @wmem_tree_new(ptr noundef %12)
  store ptr %13, ptr %8, align 8
  br label %14

14:                                               ; preds = %11, %7
  %15 = phi ptr [ %13, %11 ], [ %9, %7 ]
  tail call void @wmem_tree_insert32(ptr noundef %15, i32 noundef %1, ptr noundef %2)
  ret void
}